; Function Attrs: mustprogress nofree nounwind memory(readwrite, inaccessiblemem: write) uwtable
define noundef double @_ZN8QuantLib16GFunctionFactory19GFunctionExactYieldclEd(ptr nocapture noundef nonnull readonly align 8 dereferenceable(40) %this, double noundef %x) unnamed_addr #21 align 2 {
entry:
  %accruals_ = getelementptr inbounds nuw i8, ptr %this, i64 16
  %0 = load ptr, ptr %accruals_, align 8, !tbaa !3
  %_M_finish.i = getelementptr inbounds nuw i8, ptr %this, i64 24
  %1 = load ptr, ptr %_M_finish.i, align 8, !tbaa !3
  %cmp.i.not7 = icmp eq ptr %0, %1
  br i1 %cmp.i.not7, label %for.cond.cleanup, label %for.body

for.cond.cleanup:                                 ; preds = %for.body, %entry
  %product.0.lcssa = phi double [ 1.000000e+00, %entry ], [ %mul, %for.body ]
  %2 = load double, ptr %0, align 8, !tbaa !240
  %3 = tail call double @llvm.fmuladd.f64(double %2, double %x, double 1.000000e+00)
  %delta_ = getelementptr inbounds nuw i8, ptr %this, i64 8
  %4 = load double, ptr %delta_, align 8, !tbaa !219
  %fneg = fneg double %4
  %call10 = tail call double @pow(double noundef %3, double noundef %fneg) #35, !tbaa !58
  %mul11 = fmul double %x, %call10
  %sub = fsub double 1.000000e+00, %product.0.lcssa
  %div12 = fdiv double 1.000000e+00, %sub
  %mul13 = fmul double %div12, %mul11
  ret double %mul13

for.body:                                         ; preds = %entry, %for.body
  %product.09 = phi double [ %mul, %for.body ], [ 1.000000e+00, %entry ]
  %__begin1.sroa.0.08 = phi ptr [ %incdec.ptr.i, %for.body ], [ %0, %entry ]
  %5 = load double, ptr %__begin1.sroa.0.08, align 8, !tbaa !240
  %6 = tail call double @llvm.fmuladd.f64(double %5, double %x, double 1.000000e+00)
  %div = fdiv double 1.000000e+00, %6
  %mul = fmul double %product.09, %div
  %incdec.ptr.i = getelementptr inbounds nuw i8, ptr %__begin1.sroa.0.08, i64 8
  %cmp.i.not = icmp eq ptr %incdec.ptr.i, %1
  br i1 %cmp.i.not, label %for.cond.cleanup, label %for.body
}